; Function Attrs: nofree nosync nounwind memory(readwrite, inaccessiblemem: none) uwtable
define i32 @Gia_ManComputeOverlapOne_rec(ptr noundef readonly captures(none) %0, i32 noundef %1) local_unnamed_addr #9 {
  %3 = getelementptr i8, ptr %0, i64 176
  %4 = getelementptr i8, ptr %0, i64 616
  %.val1419 = load i32, ptr %3, align 8, !tbaa !84
  %.val1520 = load ptr, ptr %4, align 8, !tbaa !85
  %5 = sext i32 %1 to i64
  %6 = getelementptr inbounds i32, ptr %.val1520, i64 %5
  %7 = load i32, ptr %6, align 4, !tbaa !48
  %.not21 = icmp eq i32 %7, %.val1419
  br i1 %.not21, label %tailrecurse._crit_edge, label %.lr.ph

.lr.ph:                                           ; preds = %2
  %8 = getelementptr i8, ptr %0, i64 32
  br label %tailrecurse

tailrecurse:                                      ; preds = %.lr.ph, %tailrecurse
  %9 = phi ptr [ %6, %.lr.ph ], [ %23, %tailrecurse ]
  %10 = phi i64 [ %5, %.lr.ph ], [ %22, %tailrecurse ]
  %.val1424 = phi i32 [ %.val1419, %.lr.ph ], [ %.val14, %tailrecurse ]
  %.tr1823 = phi i32 [ %1, %.lr.ph ], [ %19, %tailrecurse ]
  %accumulator.tr22 = phi i32 [ 0, %.lr.ph ], [ %21, %tailrecurse ]
  store i32 %.val1424, ptr %9, align 4, !tbaa !48
  %.val = load ptr, ptr %8, align 8, !tbaa !55
  %11 = getelementptr inbounds %struct.Gia_Obj_t_, ptr %.val, i64 %10
  %.val12 = load i64, ptr %11, align 4
  %12 = trunc i64 %.val12 to i32
  %13 = and i32 %12, 536870911
  %14 = sub nsw i32 %.tr1823, %13
  %15 = tail call i32 @Gia_ManComputeOverlapOne_rec(ptr noundef nonnull %0, i32 noundef %14)
  %.val13 = load i64, ptr %11, align 4
  %16 = lshr i64 %.val13, 32
  %17 = trunc nuw i64 %16 to i32
  %18 = and i32 %17, 536870911
  %19 = sub nsw i32 %.tr1823, %18
  %20 = add i32 %accumulator.tr22, 1
  %21 = add i32 %20, %15
  %.val14 = load i32, ptr %3, align 8, !tbaa !84
  %.val15 = load ptr, ptr %4, align 8, !tbaa !85
  %22 = sext i32 %19 to i64
  %23 = getelementptr inbounds i32, ptr %.val15, i64 %22
  %24 = load i32, ptr %23, align 4, !tbaa !48
  %.not = icmp eq i32 %24, %.val14
  br i1 %.not, label %tailrecurse._crit_edge, label %tailrecurse

tailrecurse._crit_edge:                           ; preds = %tailrecurse, %2
  %accumulator.tr.lcssa = phi i32 [ 0, %2 ], [ %21, %tailrecurse ]
  ret i32 %accumulator.tr.lcssa
}